Certificate:
    Data:
        Version: 3 (0x2)
        Serial Number:
            8a:2d:06:5d:60:e3:6a:0e:78:7d:1e:8e:18:75:62:06
        Signature Algorithm: sha256WithRSAEncryption
        Issuer: CN=server
        Validity
            Not Before: Apr 16 12:17:04 2025 GMT
            Not After : Jul 20 12:17:04 2027 GMT
        Subject: CN=client
        Subject Public Key Info:
            Public Key Algorithm: rsaEncryption
                Public-Key: (2048 bit)
                Modulus:
                    00:b1:83:19:c8:58:4d:08:7f:97:b9:b5:b9:c5:17:
                    80:9d:c2:34:48:31:7b:8e:23:6f:31:8a:18:d3:06:
                    6d:2a:e6:d9:b0:88:e6:ec:c8:70:43:a6:c4:ec:70:
                    dd:60:9a:1e:9b:de:2f:6f:60:e5:de:e8:71:73:c3:
                    a5:d3:a7:70:34:73:92:69:76:76:5c:ca:72:53:b6:
                    76:d3:e4:1f:36:75:c9:16:e5:4b:66:c3:27:7f:2c:
                    2a:04:54:c4:cd:77:49:0e:a8:56:9c:55:8e:fc:67:
                    fb:be:34:44:96:47:df:b4:20:23:68:d7:ef:b7:69:
                    51:e5:e9:b6:41:4b:ed:b5:75:e0:90:2f:36:b6:af:
                    1b:9a:48:50:bd:9b:38:6b:b2:fa:da:3f:f3:17:f0:
                    eb:0d:6e:9b:84:aa:ee:76:ab:f7:9a:84:b4:e3:b8:
                    54:1d:b5:78:c7:ea:94:7e:09:90:b8:c6:53:8f:de:
                    41:9c:2e:fd:00:f7:a8:54:f1:d2:9f:18:4c:a9:14:
                    a8:4b:92:01:a7:3a:dd:78:43:e3:29:1b:8b:eb:09:
                    84:3a:38:43:3f:9d:aa:d1:40:28:8a:64:cb:00:ad:
                    d1:85:48:4b:f8:1e:b1:29:4b:66:80:c0:eb:cb:74:
                    84:60:8a:64:8d:7c:da:21:9b:e6:43:6b:d8:56:7f:
                    e8:45
                Exponent: 65537 (0x10001)
        X509v3 extensions:
            X509v3 Basic Constraints: 
                CA:FALSE
            X509v3 Subject Key Identifier: 
                68:C2:75:2D:9B:64:65:6A:6A:31:89:C9:3F:F9:23:3E:1C:13:D5:67
            X509v3 Authority Key Identifier: 
                keyid:64:31:E9:78:A5:35:20:B8:BC:FC:46:0F:88:29:01:5F:44:16:9E:2C
                DirName:/CN=server
                serial:6C:28:A5:66:68:F7:62:38:09:73:E0:E5:18:1B:D0:78:82:2F:5E:40
            X509v3 Extended Key Usage: 
                TLS Web Client Authentication
            X509v3 Key Usage: 
                Digital Signature
    Signature Algorithm: sha256WithRSAEncryption
    Signature Value:
        00:db:e8:8b:c9:aa:c5:38:9a:74:dd:d6:7e:19:20:b6:f5:d1:
        05:10:09:a1:49:09:50:f2:d2:27:68:cc:5d:3e:34:2f:70:b8:
        41:6a:b3:c5:54:24:bb:09:51:03:77:b3:df:77:24:1d:cf:5c:
        e9:d0:ed:0a:22:fc:dc:e2:46:92:f5:60:63:aa:c4:80:a5:dc:
        4e:6b:f8:c2:fe:f6:8d:2e:84:7b:7c:e6:50:72:a5:5c:d2:1e:
        df:90:c9:ae:6b:c1:4e:4d:10:ff:52:ba:5c:ad:9f:63:ad:67:
        81:e5:0a:62:e0:ea:57:c4:ab:60:2e:47:64:64:6e:77:66:f6:
        2c:75:18:7b:9f:a7:bd:47:97:36:c1:79:df:51:45:fc:bf:8b:
        01:58:84:2e:5c:39:8e:92:ac:f3:4d:f8:51:7d:8f:bc:77:a0:
        da:ce:10:e7:70:e3:46:eb:a4:52:4b:f6:4c:d7:3d:17:55:b9:
        43:a2:01:94:16:39:54:5a:dc:6e:69:1a:03:49:ff:68:5d:56:
        db:ee:af:56:4a:45:1a:2f:67:69:df:d2:3e:49:77:56:2a:77:
        6b:61:e3:e3:3d:79:e8:ae:6e:19:85:0a:fd:b2:5d:fb:2d:84:
        ec:e9:dd:31:a6:a7:bf:42:ad:42:b2:d3:c8:a7:24:48:dc:33:
        2f:94:cc:4b
-----BEGIN CERTIFICATE-----
MIIDSzCCAjOgAwIBAgIRAIotBl1g42oOeH0ejhh1YgYwDQYJKoZIhvcNAQELBQAw
ETEPMA0GA1UEAwwGc2VydmVyMB4XDTI1MDQxNjEyMTcwNFoXDTI3MDcyMDEyMTcw
NFowETEPMA0GA1UEAwwGY2xpZW50MIIBIjANBgkqhkiG9w0BAQEFAAOCAQ8AMIIB
CgKCAQEAsYMZyFhNCH+XubW5xReAncI0SDF7jiNvMYoY0wZtKubZsIjm7MhwQ6bE
7HDdYJoem94vb2Dl3uhxc8Ol06dwNHOSaXZ2XMpyU7Z20+QfNnXJFuVLZsMnfywq
BFTEzXdJDqhWnFWO/Gf7vjRElkfftCAjaNfvt2lR5em2QUvttXXgkC82tq8bmkhQ
vZs4a7L62j/zF/DrDW6bhKrudqv3moS047hUHbV4x+qUfgmQuMZTj95BnC79APeo
VPHSnxhMqRSoS5IBpzrdeEPjKRuL6wmEOjhDP52q0UAoimTLAK3RhUhL+B6xKUtm
gMDry3SEYIpkjXzaIZvmQ2vYVn/oRQIDAQABo4GdMIGaMAkGA1UdEwQCMAAwHQYD
VR0OBBYEFGjCdS2bZGVqajGJyT/5Iz4cE9VnMEwGA1UdIwRFMEOAFGQx6XilNSC4
vPxGD4gpAV9EFp4soRWkEzARMQ8wDQYDVQQDDAZzZXJ2ZXKCFGwopWZo92I4CXPg
5Rgb0HiCL15AMBMGA1UdJQQMMAoGCCsGAQUFBwMCMAsGA1UdDwQEAwIHgDANBgkq
hkiG9w0BAQsFAAOCAQEAANvoi8mqxTiadN3WfhkgtvXRBRAJoUkJUPLSJ2jMXT40
L3C4QWqzxVQkuwlRA3ez33ckHc9c6dDtCiL83OJGkvVgY6rEgKXcTmv4wv72jS6E
e3zmUHKlXNIe35DJrmvBTk0Q/1K6XK2fY61ngeUKYuDqV8SrYC5HZGRud2b2LHUY
e5+nvUeXNsF531FF/L+LAViELlw5jpKs8034UX2PvHeg2s4Q53DjRuukUkv2TNc9
F1W5Q6IBlBY5VFrcbmkaA0n/aF1W2+6vVkpFGi9nad/SPkl3Vip3a2Hj4z156K5u
GYUK/bJd+y2E7OndMaanv0KtQrLTyKckSNwzL5TMSw==
-----END CERTIFICATE-----
